target datalayout = "e-m:e-p270:32:32-p271:32:32-p272:64:64-i64:64-i128:128-f80:128-n8:16:32:64-S128"
target triple = "x86_64-pc-linux-gnu"

%struct.PressureCouplingOptions = type { i32, i32, i32, float, [3 x [3 x float]], [3 x [3 x float]], i32 }
%class.t_state = type { i32, i32, i32, i32, i32, i32, %"struct.gmx::EnumerationArray", [3 x [3 x float]], [3 x [3 x float]], [3 x [3 x float]], [3 x [3 x float]], [3 x [3 x float]], [3 x [3 x float]], %"class.std::vector.55", %"class.std::vector.55", %"class.std::vector.55", %"class.std::vector.55", %"class.std::vector.55", double, float, float, %"class.gmx::PaddedVector", %"class.gmx::PaddedVector", %"class.gmx::PaddedVector", %class.ekinstate_t, %class.history_t, ptr, %"class.std::shared_ptr", i32, i32, %"class.std::vector.67", %"class.std::vector.55" }
%"struct.gmx::EnumerationArray" = type { [7 x float] }
%"class.gmx::PaddedVector" = type { %"class.std::vector.60", %"class.__gnu_cxx::__normal_iterator" }
%"class.std::vector.60" = type { %"struct.std::_Vector_base.61" }
%"struct.std::_Vector_base.61" = type { %"struct.std::_Vector_base<gmx::BasicVector<float>, gmx::Allocator<gmx::BasicVector<float>, gmx::HostAllocationPolicy>>::_Vector_impl" }
%"struct.std::_Vector_base<gmx::BasicVector<float>, gmx::Allocator<gmx::BasicVector<float>, gmx::HostAllocationPolicy>>::_Vector_impl" = type { %"class.gmx::Allocator.base", %"struct.std::_Vector_base<gmx::BasicVector<float>, gmx::Allocator<gmx::BasicVector<float>, gmx::HostAllocationPolicy>>::_Vector_impl_data" }
%"class.gmx::Allocator.base" = type { %"class.gmx::HostAllocationPolicy.base" }
%"class.gmx::HostAllocationPolicy.base" = type <{ i32, i8 }>
%"struct.std::_Vector_base<gmx::BasicVector<float>, gmx::Allocator<gmx::BasicVector<float>, gmx::HostAllocationPolicy>>::_Vector_impl_data" = type { ptr, ptr, ptr }
%"class.__gnu_cxx::__normal_iterator" = type { ptr }
%class.ekinstate_t = type <{ i8, [3 x i8], i32, ptr, ptr, ptr, [3 x [3 x float]], [4 x i8], %"class.std::vector.55", %"class.std::vector.55", %"class.std::vector.55", float, float, i8, [7 x i8] }>
%class.history_t = type { float, %"class.std::vector.62", float, %"class.std::vector.62" }
%"class.std::vector.62" = type { %"struct.std::_Vector_base.63" }
%"struct.std::_Vector_base.63" = type { %"struct.std::_Vector_base<float, std::allocator<float>>::_Vector_impl" }
%"struct.std::_Vector_base<float, std::allocator<float>>::_Vector_impl" = type { %"struct.std::_Vector_base<float, std::allocator<float>>::_Vector_impl_data" }
%"struct.std::_Vector_base<float, std::allocator<float>>::_Vector_impl_data" = type { ptr, ptr, ptr }
%"class.std::shared_ptr" = type { %"class.std::__shared_ptr" }
%"class.std::__shared_ptr" = type { ptr, %"class.std::__shared_count" }
%"class.std::__shared_count" = type { ptr }
%"class.std::vector.67" = type { %"struct.std::_Vector_base.68" }
%"struct.std::_Vector_base.68" = type { %"struct.std::_Vector_base<int, std::allocator<int>>::_Vector_impl" }
%"struct.std::_Vector_base<int, std::allocator<int>>::_Vector_impl" = type { %"struct.std::_Vector_base<int, std::allocator<int>>::_Vector_impl_data" }
%"struct.std::_Vector_base<int, std::allocator<int>>::_Vector_impl_data" = type { ptr, ptr, ptr }
%"class.std::vector.55" = type { %"struct.std::_Vector_base.56" }
%"struct.std::_Vector_base.56" = type { %"struct.std::_Vector_base<double, std::allocator<double>>::_Vector_impl" }
%"struct.std::_Vector_base<double, std::allocator<double>>::_Vector_impl" = type { %"struct.std::_Vector_base<double, std::allocator<double>>::_Vector_impl_data" }
%"struct.std::_Vector_base<double, std::allocator<double>>::_Vector_impl_data" = type { ptr, ptr, ptr }

; Function Attrs: inlinehint mustprogress nounwind uwtable
define linkonce_odr noundef zeroext i1 @_Z11do_per_stepll(i64 noundef %0, i64 noundef %1) #2 comdat {
  %3 = alloca i1, align 1
  %4 = alloca i64, align 8
  %5 = alloca i64, align 8
  store i64 %0, ptr %4, align 8, !tbaa !4
  store i64 %1, ptr %5, align 8, !tbaa !4
  %6 = load i64, ptr %5, align 8, !tbaa !4
  %7 = icmp ne i64 %6, 0
  br i1 %7, label %8, label %13

8:                                                ; preds = %2
  %9 = load i64, ptr %4, align 8, !tbaa !4
  %10 = load i64, ptr %5, align 8, !tbaa !4
  %11 = srem i64 %9, %10
  %12 = icmp eq i64 %11, 0
  store i1 %12, ptr %3, align 1
  br label %14

13:                                               ; preds = %2
  store i1 false, ptr %3, align 1
  br label %14

14:                                               ; preds = %13, %8
  %15 = load i1, ptr %3, align 1
  ret i1 %15
}

; Function Attrs: mustprogress uwtable
define void @_Z33update_pcouple_before_coordinatesRKN3gmx8MDLoggerElRK23PressureCouplingOptionsPA3_KffP7t_statePNS_13MultiDimArrayISt5arrayIfLm9EENS_7extentsIJLl3ELl3EEEENS_12layout_rightEEESI_(ptr noundef nonnull align 8 dereferenceable(40) %0, i64 noundef %1, ptr noundef nonnull align 4 dereferenceable(92) %2, ptr noundef %3, float noundef %4, ptr noundef %5, ptr noundef %6, ptr noundef %7) #0 {
  %9 = alloca ptr, align 8
  %10 = alloca i64, align 8
  %11 = alloca ptr, align 8
  %12 = alloca ptr, align 8
  %13 = alloca float, align 4
  %14 = alloca ptr, align 8
  %15 = alloca ptr, align 8
  %16 = alloca ptr, align 8
  %17 = alloca float, align 4
  store ptr %0, ptr %9, align 8, !tbaa !251
  store i64 %1, ptr %10, align 8, !tbaa !4
  store ptr %2, ptr %11, align 8, !tbaa !253
  store ptr %3, ptr %12, align 8, !tbaa !163
  store float %4, ptr %13, align 4, !tbaa !118
  store ptr %5, ptr %14, align 8, !tbaa !11
  store ptr %6, ptr %15, align 8, !tbaa !255
  store ptr %7, ptr %16, align 8, !tbaa !255
  %18 = load ptr, ptr %11, align 8, !tbaa !253
  %19 = getelementptr inbounds nuw %struct.PressureCouplingOptions, ptr %18, i32 0, i32 0
  %20 = load i32, ptr %19, align 4, !tbaa !257
  %21 = icmp eq i32 %20, 2
  br i1 %21, label %22, label %61

22:                                               ; preds = %8
  %23 = load i64, ptr %10, align 8, !tbaa !4
  %24 = load ptr, ptr %11, align 8, !tbaa !253
  %25 = getelementptr inbounds nuw %struct.PressureCouplingOptions, ptr %24, i32 0, i32 2
  %26 = load i32, ptr %25, align 4, !tbaa !258
  %27 = sext i32 %26 to i64
  %28 = add nsw i64 %23, %27
  %29 = sub nsw i64 %28, 1
  %30 = load ptr, ptr %11, align 8, !tbaa !253
  %31 = getelementptr inbounds nuw %struct.PressureCouplingOptions, ptr %30, i32 0, i32 2
  %32 = load i32, ptr %31, align 4, !tbaa !258
  %33 = sext i32 %32 to i64
  %34 = call noundef zeroext i1 @_Z11do_per_stepll(i64 noundef %29, i64 noundef %33)
  br i1 %34, label %35, label %61

35:                                               ; preds = %22
  call void @llvm.lifetime.start.p0(i64 4, ptr %17) #20
  %36 = load ptr, ptr %11, align 8, !tbaa !253
  %37 = getelementptr inbounds nuw %struct.PressureCouplingOptions, ptr %36, i32 0, i32 2
  %38 = load i32, ptr %37, align 4, !tbaa !258
  %39 = sitofp i32 %38 to float
  %40 = load float, ptr %13, align 4, !tbaa !118
  %41 = fmul float %39, %40
  store float %41, ptr %17, align 4, !tbaa !118
  %42 = load ptr, ptr %9, align 8, !tbaa !251
  %43 = load i64, ptr %10, align 8, !tbaa !4
  %44 = load ptr, ptr %11, align 8, !tbaa !253
  %45 = load ptr, ptr %12, align 8, !tbaa !163
  %46 = load float, ptr %17, align 4, !tbaa !118
  %47 = load ptr, ptr %14, align 8, !tbaa !11
  %48 = getelementptr inbounds nuw %class.t_state, ptr %47, i32 0, i32 10
  %49 = getelementptr inbounds [3 x [3 x float]], ptr %48, i64 0, i64 0
  %50 = load ptr, ptr %14, align 8, !tbaa !11
  %51 = getelementptr inbounds nuw %class.t_state, ptr %50, i32 0, i32 7
  %52 = getelementptr inbounds [3 x [3 x float]], ptr %51, i64 0, i64 0
  %53 = load ptr, ptr %14, align 8, !tbaa !11
  %54 = getelementptr inbounds nuw %class.t_state, ptr %53, i32 0, i32 8
  %55 = getelementptr inbounds [3 x [3 x float]], ptr %54, i64 0, i64 0
  %56 = load ptr, ptr %14, align 8, !tbaa !11
  %57 = getelementptr inbounds nuw %class.t_state, ptr %56, i32 0, i32 9
  %58 = getelementptr inbounds [3 x [3 x float]], ptr %57, i64 0, i64 0
  %59 = load ptr, ptr %16, align 8, !tbaa !255
  %60 = load ptr, ptr %15, align 8, !tbaa !255
  call void @_Z23parrinellorahman_pcouplRKN3gmx8MDLoggerElRK23PressureCouplingOptionsPA3_KffS8_S8_PA3_fSA_PNS_13MultiDimArrayISt5arrayIfLm9EENS_7extentsIJLl3ELl3EEEENS_12layout_rightEEESI_(ptr noundef nonnull align 8 dereferenceable(40) %42, i64 noundef %43, ptr noundef nonnull align 4 dereferenceable(92) %44, ptr noundef %45, float noundef %46, ptr noundef %49, ptr noundef %52, ptr noundef %55, ptr noundef %58, ptr noundef %59, ptr noundef %60)
  call void @llvm.lifetime.end.p0(i64 4, ptr %17) #20
  br label %61

61:                                               ; preds = %35, %22, %8
  ret void
}