; Function Attrs: mustprogress uwtable
define void @_Z33update_pcouple_before_coordinatesRKN3gmx8MDLoggerElRK23PressureCouplingOptionsPA3_KffP7t_statePNS_13MultiDimArrayISt5arrayIfLm9EENS_7extentsIJLl3ELl3EEEENS_12layout_rightEEESI_(ptr noundef nonnull readonly align 8 captures(none) dereferenceable(40) %0, i64 noundef %1, ptr noundef nonnull align 4 dereferenceable(92) %2, ptr noundef %3, float noundef %4, ptr noundef %5, ptr noundef %6, ptr noundef %7) local_unnamed_addr #0 {
  %9 = load i32, ptr %2, align 4, !tbaa !151
  %10 = icmp eq i32 %9, 2
  br i1 %10, label %11, label %_Z11do_per_stepll.exit.thread

11:                                               ; preds = %8
  %12 = getelementptr inbounds nuw i8, ptr %2, i64 8
  %13 = load i32, ptr %12, align 4, !tbaa !152
  %.not.i = icmp eq i32 %13, 0
  br i1 %.not.i, label %_Z11do_per_stepll.exit.thread, label %_Z11do_per_stepll.exit

_Z11do_per_stepll.exit:                           ; preds = %11
  %14 = sext i32 %13 to i64
  %15 = add i64 %1, -1
  %16 = add i64 %15, %14
  %17 = srem i64 %16, %14
  %18 = icmp eq i64 %17, 0
  br i1 %18, label %19, label %_Z11do_per_stepll.exit.thread

19:                                               ; preds = %_Z11do_per_stepll.exit
  %20 = sitofp i32 %13 to float
  %21 = fmul float %4, %20
  %22 = getelementptr inbounds nuw i8, ptr %5, i64 160
  %23 = getelementptr inbounds nuw i8, ptr %5, i64 52
  %24 = getelementptr inbounds nuw i8, ptr %5, i64 88
  %25 = getelementptr inbounds nuw i8, ptr %5, i64 124
  tail call void @_Z23parrinellorahman_pcouplRKN3gmx8MDLoggerElRK23PressureCouplingOptionsPA3_KffS8_S8_PA3_fSA_PNS_13MultiDimArrayISt5arrayIfLm9EENS_7extentsIJLl3ELl3EEEENS_12layout_rightEEESI_(ptr noundef nonnull align 8 dereferenceable(40) %0, i64 noundef %1, ptr noundef nonnull align 4 dereferenceable(92) %2, ptr noundef %3, float noundef %21, ptr noundef nonnull %22, ptr noundef nonnull %23, ptr noundef nonnull %24, ptr noundef nonnull %25, ptr noundef %7, ptr noundef %6)
  br label %_Z11do_per_stepll.exit.thread

_Z11do_per_stepll.exit.thread:                    ; preds = %11, %19, %_Z11do_per_stepll.exit, %8
  ret void
}